target datalayout = "e-m:e-p270:32:32-p271:32:32-p272:64:64-i64:64-i128:128-f80:128-n8:16:32:64-S128"
target triple = "x86_64-pc-linux-gnu"

%struct.dt_variables_params_t = type { ptr, ptr, i32, i32, ptr, i32, i32, ptr }
%struct.dt_variables_data_t = type { ptr, ptr, ptr, ptr, i32, i32, i32, i32, i32, i32, i32, i32, i32, i32, i32, i32, ptr, ptr, ptr, i32, i32, i32, ptr, ptr, ptr, i32, i32, ptr, float, float, float, float, float, float, ptr, ptr, ptr, ptr, ptr, double, double, double, i32, i32 }

@.str.3 = private unnamed_addr constant [1 x i8] zeroinitializer, align 1
@.str.79 = private unnamed_addr constant [6 x i8] c"infos\00", align 1
@.str.223 = private unnamed_addr constant [49 x i8] c"plugins/lighttable/metadata_view/pretty_location\00", align 1
@.str.225 = private unnamed_addr constant [9 x i8] c"%c%09.6f\00", align 1

; Function Attrs: nounwind uwtable
define internal ptr @_variables_get_latitude(ptr noundef %0) #0 {
  %2 = alloca ptr, align 8
  %3 = alloca ptr, align 8
  %4 = alloca i8, align 1
  store ptr %0, ptr %3, align 8, !tbaa !6
  %5 = load ptr, ptr %3, align 8, !tbaa !6
  %6 = getelementptr inbounds nuw %struct.dt_variables_params_t, ptr %5, i32 0, i32 4
  %7 = load ptr, ptr %6, align 8, !tbaa !15
  %8 = getelementptr inbounds nuw %struct.dt_variables_data_t, ptr %7, i32 0, i32 40
  %9 = load double, ptr %8, align 8, !tbaa !44
  %10 = call i1 @llvm.is.fpclass.f64(double %9, i32 3)
  br i1 %10, label %11, label %13

11:                                               ; preds = %1
  %12 = call noalias ptr @g_strdup(ptr noundef @.str.3)
  store ptr %12, ptr %2, align 8
  br label %48

13:                                               ; preds = %1
  %14 = call i32 @dt_conf_get_bool(ptr noundef @.str.223)
  %15 = icmp ne i32 %14, 0
  br i1 %15, label %16, label %30

16:                                               ; preds = %13
  %17 = load ptr, ptr %3, align 8, !tbaa !6
  %18 = getelementptr inbounds nuw %struct.dt_variables_params_t, ptr %17, i32 0, i32 1
  %19 = load ptr, ptr %18, align 8, !tbaa !147
  %20 = call i32 @g_strcmp0(ptr noundef %19, ptr noundef @.str.79)
  %21 = icmp eq i32 %20, 0
  br i1 %21, label %22, label %30

22:                                               ; preds = %16
  %23 = load ptr, ptr %3, align 8, !tbaa !6
  %24 = getelementptr inbounds nuw %struct.dt_variables_params_t, ptr %23, i32 0, i32 4
  %25 = load ptr, ptr %24, align 8, !tbaa !15
  %26 = getelementptr inbounds nuw %struct.dt_variables_data_t, ptr %25, i32 0, i32 40
  %27 = load double, ptr %26, align 8, !tbaa !44
  %28 = fptrunc reassoc nsz arcp contract afn double %27 to float
  %29 = call ptr @dt_util_latitude_str(float noundef %28)
  store ptr %29, ptr %2, align 8
  br label %48

30:                                               ; preds = %16, %13
  call void @llvm.lifetime.start.p0(i64 1, ptr %4) #11
  %31 = load ptr, ptr %3, align 8, !tbaa !6
  %32 = getelementptr inbounds nuw %struct.dt_variables_params_t, ptr %31, i32 0, i32 4
  %33 = load ptr, ptr %32, align 8, !tbaa !15
  %34 = getelementptr inbounds nuw %struct.dt_variables_data_t, ptr %33, i32 0, i32 40
  %35 = load double, ptr %34, align 8, !tbaa !44
  %36 = fcmp reassoc nsz arcp contract afn olt double %35, 0.000000e+00
  %37 = select i1 %36, i32 83, i32 78
  %38 = trunc i32 %37 to i8
  store i8 %38, ptr %4, align 1, !tbaa !111
  %39 = load i8, ptr %4, align 1, !tbaa !111
  %40 = sext i8 %39 to i32
  %41 = load ptr, ptr %3, align 8, !tbaa !6
  %42 = getelementptr inbounds nuw %struct.dt_variables_params_t, ptr %41, i32 0, i32 4
  %43 = load ptr, ptr %42, align 8, !tbaa !15
  %44 = getelementptr inbounds nuw %struct.dt_variables_data_t, ptr %43, i32 0, i32 40
  %45 = load double, ptr %44, align 8, !tbaa !44
  %46 = call reassoc nsz arcp contract afn double @llvm.fabs.f64(double %45)
  %47 = call noalias ptr (ptr, ...) @g_strdup_printf(ptr noundef @.str.225, i32 noundef %40, double noundef %46)
  store ptr %47, ptr %2, align 8
  call void @llvm.lifetime.end.p0(i64 1, ptr %4) #11
  br label %48

48:                                               ; preds = %30, %22, %11
  %49 = load ptr, ptr %2, align 8
  ret ptr %49
}