; Function Attrs: nounwind uwtable
define internal fastcc ptr @_variables_get_latitude(ptr noundef readonly captures(none) %0) unnamed_addr #0 {
  %2 = getelementptr inbounds nuw i8, ptr %0, i64 24
  %3 = load ptr, ptr %2, align 8, !tbaa !11
  %4 = getelementptr inbounds nuw i8, ptr %3, i64 232
  %5 = load double, ptr %4, align 8, !tbaa !34
  %6 = fcmp uno double %5, 0.000000e+00
  br i1 %6, label %7, label %9

7:                                                ; preds = %1
  %8 = tail call noalias ptr @g_strdup(ptr noundef nonnull @.str.3) #16
  br label %30

9:                                                ; preds = %1
  %10 = tail call i32 @dt_conf_get_bool(ptr noundef nonnull @.str.223) #16
  %.not = icmp eq i32 %10, 0
  br i1 %.not, label %22, label %11

11:                                               ; preds = %9
  %12 = getelementptr inbounds nuw i8, ptr %0, i64 8
  %13 = load ptr, ptr %12, align 8, !tbaa !133
  %14 = tail call i32 @g_strcmp0(ptr noundef %13, ptr noundef nonnull @.str.79) #16
  %15 = icmp eq i32 %14, 0
  br i1 %15, label %16, label %22

16:                                               ; preds = %11
  %17 = load ptr, ptr %2, align 8, !tbaa !11
  %18 = getelementptr inbounds nuw i8, ptr %17, i64 232
  %19 = load double, ptr %18, align 8, !tbaa !34
  %20 = fptrunc reassoc nsz arcp contract afn double %19 to float
  %21 = tail call ptr @dt_util_latitude_str(float noundef %20) #16
  br label %30

22:                                               ; preds = %11, %9
  %23 = load ptr, ptr %2, align 8, !tbaa !11
  %24 = getelementptr inbounds nuw i8, ptr %23, i64 232
  %25 = load double, ptr %24, align 8, !tbaa !34
  %26 = fcmp reassoc nsz arcp contract afn olt double %25, 0.000000e+00
  %27 = select i1 %26, i32 83, i32 78
  %28 = tail call reassoc nsz arcp contract afn double @llvm.fabs.f64(double %25)
  %29 = tail call noalias ptr (ptr, ...) @g_strdup_printf(ptr noundef nonnull @.str.225, i32 noundef %27, double noundef %28) #16
  br label %30

30:                                               ; preds = %22, %16, %7
  %.0 = phi ptr [ %8, %7 ], [ %21, %16 ], [ %29, %22 ]
  ret ptr %.0
}